; Function Attrs: inlinehint mustprogress nounwind uwtable
define internal void @_ZN5faiss12_GLOBAL__N_128PreTransformDistanceComputerD2Ev(ptr noundef nonnull align 8 captures(none) dereferenceable(32) initializes((0, 8)) %0) unnamed_addr #9 align 2 personality ptr @__gxx_personality_v0 {
  store ptr getelementptr inbounds nuw inrange(-16, 48) (i8, ptr @_ZTVN5faiss12_GLOBAL__N_128PreTransformDistanceComputerE, i64 16), ptr %0, align 8, !tbaa !42
  %2 = getelementptr inbounds nuw i8, ptr %0, i64 24
  %3 = load ptr, ptr %2, align 8, !tbaa !88
  %.not.i = icmp eq ptr %3, null
  br i1 %.not.i, label %_ZNSt10unique_ptrIA_KfSt14default_deleteIS1_EED2Ev.exit, label %_ZNKSt14default_deleteIA_KfEclIS0_EENSt9enable_ifIXsr14is_convertibleIPA_T_PS1_EE5valueEvE4typeEPS5_.exit.i

_ZNKSt14default_deleteIA_KfEclIS0_EENSt9enable_ifIXsr14is_convertibleIPA_T_PS1_EE5valueEvE4typeEPS5_.exit.i: ; preds = %1
  tail call void @_ZdaPv(ptr noundef nonnull %3) #21
  br label %_ZNSt10unique_ptrIA_KfSt14default_deleteIS1_EED2Ev.exit

_ZNSt10unique_ptrIA_KfSt14default_deleteIS1_EED2Ev.exit: ; preds = %1, %_ZNKSt14default_deleteIA_KfEclIS0_EENSt9enable_ifIXsr14is_convertibleIPA_T_PS1_EE5valueEvE4typeEPS5_.exit.i
  store ptr null, ptr %2, align 8, !tbaa !88
  %4 = getelementptr inbounds nuw i8, ptr %0, i64 16
  %5 = load ptr, ptr %4, align 8, !tbaa !77
  %.not.i1 = icmp eq ptr %5, null
  br i1 %.not.i1, label %_ZNSt10unique_ptrIN5faiss16DistanceComputerESt14default_deleteIS1_EED2Ev.exit, label %_ZNKSt14default_deleteIN5faiss16DistanceComputerEEclEPS1_.exit.i

_ZNKSt14default_deleteIN5faiss16DistanceComputerEEclEPS1_.exit.i: ; preds = %_ZNSt10unique_ptrIA_KfSt14default_deleteIS1_EED2Ev.exit
  %6 = load ptr, ptr %5, align 8, !tbaa !42
  %7 = getelementptr inbounds nuw i8, ptr %6, i64 40
  %8 = load ptr, ptr %7, align 8
  tail call void %8(ptr noundef nonnull align 8 dereferenceable(8) %5) #20
  br label %_ZNSt10unique_ptrIN5faiss16DistanceComputerESt14default_deleteIS1_EED2Ev.exit

_ZNSt10unique_ptrIN5faiss16DistanceComputerESt14default_deleteIS1_EED2Ev.exit: ; preds = %_ZNSt10unique_ptrIA_KfSt14default_deleteIS1_EED2Ev.exit, %_ZNKSt14default_deleteIN5faiss16DistanceComputerEEclEPS1_.exit.i
  store ptr null, ptr %4, align 8, !tbaa !77
  ret void
}